; Function Attrs: mustprogress uwtable
define noundef ptr @_ZN6icu_7718DateIntervalFormat14createInstanceERKNS_13UnicodeStringERKNS_6LocaleER10UErrorCode(ptr noundef nonnull align 8 dereferenceable(64) %0, ptr noundef nonnull align 8 dereferenceable(217) %1, ptr noundef nonnull align 4 dereferenceable(4) %2) local_unnamed_addr #1 align 2 personality ptr @__gxx_personality_v0 {
  %4 = tail call noundef ptr @_ZN6icu_777UMemorynwEm(i64 noundef 88) #19
  %5 = icmp eq ptr %4, null
  br i1 %5, label %7, label %6

6:                                                ; preds = %3
  invoke void @_ZN6icu_7716DateIntervalInfoC1ERKNS_6LocaleER10UErrorCode(ptr noundef nonnull align 8 dereferenceable(88) %4, ptr noundef nonnull align 8 dereferenceable(217) %1, ptr noundef nonnull align 4 dereferenceable(4) %2)
          to label %10 unwind label %8

7:                                                ; preds = %3
  store i32 7, ptr %2, align 4, !tbaa !13
  br label %_ZN6icu_7718DateIntervalFormat6createERKNS_6LocaleEPNS_16DateIntervalInfoEPKNS_13UnicodeStringER10UErrorCode.exit

common.resume:                                    ; preds = %15, %8
  %.sink = phi ptr [ %11, %15 ], [ %4, %8 ]
  %common.resume.op = phi { ptr, i32 } [ %16, %15 ], [ %9, %8 ]
  tail call void @_ZN6icu_777UMemorydlEPv(ptr noundef nonnull %.sink) #19
  resume { ptr, i32 } %common.resume.op

8:                                                ; preds = %6
  %9 = landingpad { ptr, i32 }
          cleanup
  br label %common.resume

10:                                               ; preds = %6
  %11 = tail call noundef ptr @_ZN6icu_777UMemorynwEm(i64 noundef 1600) #19
  %12 = icmp eq ptr %11, null
  br i1 %12, label %14, label %13

13:                                               ; preds = %10
  invoke void @_ZN6icu_7718DateIntervalFormatC1ERKNS_6LocaleEPNS_16DateIntervalInfoEPKNS_13UnicodeStringER10UErrorCode(ptr noundef nonnull align 8 dereferenceable(1596) %11, ptr noundef nonnull align 8 dereferenceable(217) %1, ptr noundef nonnull %4, ptr noundef nonnull %0, ptr noundef nonnull align 4 dereferenceable(4) %2)
          to label %17 unwind label %15

14:                                               ; preds = %10
  store i32 7, ptr %2, align 4, !tbaa !13
  tail call void @_ZN6icu_7716DateIntervalInfoD1Ev(ptr noundef nonnull align 8 dereferenceable(88) %4) #19
  tail call void @_ZN6icu_777UMemorydlEPv(ptr noundef nonnull %4) #19
  br label %_ZN6icu_7718DateIntervalFormat6createERKNS_6LocaleEPNS_16DateIntervalInfoEPKNS_13UnicodeStringER10UErrorCode.exit

15:                                               ; preds = %13
  %16 = landingpad { ptr, i32 }
          cleanup
  br label %common.resume

17:                                               ; preds = %13
  %18 = load i32, ptr %2, align 4, !tbaa !13
  %19 = icmp slt i32 %18, 1
  br i1 %19, label %_ZN6icu_7718DateIntervalFormat6createERKNS_6LocaleEPNS_16DateIntervalInfoEPKNS_13UnicodeStringER10UErrorCode.exit, label %20

20:                                               ; preds = %17
  %21 = load ptr, ptr %11, align 8, !tbaa !15
  %22 = getelementptr inbounds nuw i8, ptr %21, i64 8
  %23 = load ptr, ptr %22, align 8
  tail call void %23(ptr noundef nonnull align 8 dereferenceable(1596) %11) #19
  br label %_ZN6icu_7718DateIntervalFormat6createERKNS_6LocaleEPNS_16DateIntervalInfoEPKNS_13UnicodeStringER10UErrorCode.exit

_ZN6icu_7718DateIntervalFormat6createERKNS_6LocaleEPNS_16DateIntervalInfoEPKNS_13UnicodeStringER10UErrorCode.exit: ; preds = %20, %17, %14, %7
  %.0 = phi ptr [ null, %7 ], [ null, %14 ], [ null, %20 ], [ %11, %17 ]
  ret ptr %.0
}